target datalayout = "e-m:e-p270:32:32-p271:32:32-p272:64:64-i64:64-i128:128-f80:128-n8:16:32:64-S128"
target triple = "x86_64-pc-linux-gnu"

%class.Register = type { i32 }
%class.XMMRegister = type { i32 }
%class.RelocationHolder = type { [40 x i8] }
%class.MachNode = type { %class.Node.base, i8, i16, ptr }
%class.Node.base = type <{ ptr, ptr, ptr, i32, i32, i32, i32, i32, i32, i32 }>
%class.Address = type { %class.Register, %class.Register, %class.XMMRegister, i32, i32, i8, [3 x i8], %class.RelocationHolder }
%class.MachTypeNode = type { %class.MachNode, ptr }
%class.zStorePNode = type { %class.MachTypeNode, [4 x ptr] }

@_ZL5noreg = internal constant %class.Register { i32 -1 }, align 4

; Function Attrs: mustprogress nounwind uwtable
define linkonce_odr hidden void @_ZN8RegisterC2Eib(ptr noundef nonnull align 4 dereferenceable(4) %0, i32 noundef %1, i1 noundef zeroext %2) unnamed_addr #1 comdat align 2 {
  %4 = alloca ptr, align 8
  %5 = alloca i32, align 4
  %6 = alloca i8, align 1
  store ptr %0, ptr %4, align 8
  store i32 %1, ptr %5, align 4
  %7 = zext i1 %2 to i8
  store i8 %7, ptr %6, align 1
  %8 = load ptr, ptr %4, align 8
  %9 = getelementptr inbounds %class.Register, ptr %8, i32 0, i32 0
  %10 = load i32, ptr %5, align 4
  store i32 %10, ptr %9, align 4
  ret void
}

; Function Attrs: mustprogress nounwind uwtable
define linkonce_odr hidden i32 @_Z11as_Registeri(i32 noundef %0) #1 comdat {
  %2 = alloca %class.Register, align 4
  %3 = alloca i32, align 4
  store i32 %0, ptr %3, align 4
  %4 = load i32, ptr %3, align 4
  %5 = icmp sle i32 0, %4
  br i1 %5, label %6, label %11

6:                                                ; preds = %1
  %7 = load i32, ptr %3, align 4
  %8 = icmp slt i32 %7, 32
  br i1 %8, label %9, label %11

9:                                                ; preds = %6
  %10 = load i32, ptr %3, align 4
  call void @_ZN8RegisterC2Eib(ptr noundef nonnull align 4 dereferenceable(4) %2, i32 noundef %10, i1 noundef zeroext false)
  br label %12

11:                                               ; preds = %6, %1
  call void @llvm.memcpy.p0.p0.i64(ptr align 4 %2, ptr align 4 @_ZL5noreg, i64 4, i1 false)
  br label %12

12:                                               ; preds = %11, %9
  %13 = getelementptr inbounds %class.Register, ptr %2, i32 0, i32 0
  %14 = load i32, ptr %13, align 4
  ret i32 %14
}

; Function Attrs: mustprogress nounwind uwtable
define linkonce_odr hidden i32 @_ZNK8MachOper11as_RegisterEP13PhaseRegAllocPK4Nodei(ptr noundef nonnull align 8 dereferenceable(8) %0, ptr noundef %1, ptr noundef %2, i32 noundef %3) #1 comdat align 2 {
  %5 = alloca %class.Register, align 4
  %6 = alloca ptr, align 8
  %7 = alloca ptr, align 8
  %8 = alloca ptr, align 8
  %9 = alloca i32, align 4
  store ptr %0, ptr %6, align 8
  store ptr %1, ptr %7, align 8
  store ptr %2, ptr %8, align 8
  store i32 %3, ptr %9, align 4
  %10 = load ptr, ptr %6, align 8
  %11 = load ptr, ptr %7, align 8
  %12 = load ptr, ptr %8, align 8
  %13 = load i32, ptr %9, align 4
  %14 = load ptr, ptr %10, align 8
  %15 = getelementptr inbounds ptr, ptr %14, i64 5
  %16 = load ptr, ptr %15, align 8
  %17 = call noundef i32 %16(ptr noundef nonnull align 8 dereferenceable(8) %10, ptr noundef %11, ptr noundef %12, i32 noundef %13)
  %18 = call i32 @_Z11as_Registeri(i32 noundef %17)
  %19 = getelementptr inbounds %class.Register, ptr %5, i32 0, i32 0
  store i32 %18, ptr %19, align 4
  %20 = getelementptr inbounds %class.Register, ptr %5, i32 0, i32 0
  %21 = load i32, ptr %20, align 4
  ret i32 %21
}

; Function Attrs: mustprogress nounwind uwtable
define linkonce_odr hidden noundef ptr @_ZNK11zStorePNode10opnd_arrayEj(ptr noundef nonnull align 8 dereferenceable(104) %0, i32 noundef %1) #1 comdat align 2 {
  %3 = alloca ptr, align 8
  %4 = alloca i32, align 4
  store ptr %0, ptr %3, align 8
  store i32 %1, ptr %4, align 4
  %5 = load ptr, ptr %3, align 8
  %6 = getelementptr inbounds %class.zStorePNode, ptr %5, i32 0, i32 1
  %7 = load i32, ptr %4, align 4
  %8 = zext i32 %7 to i64
  %9 = getelementptr inbounds [4 x ptr], ptr %6, i64 0, i64 %8
  %10 = load ptr, ptr %9, align 8
  ret ptr %10
}

; Function Attrs: mustprogress nounwind uwtable
define hidden void @_ZNK11zStorePNode4emitEP17C2_MacroAssemblerP13PhaseRegAlloc(ptr noundef nonnull align 8 dereferenceable(104) %0, ptr noundef %1, ptr noundef %2) unnamed_addr #1 align 2 {
  %4 = alloca ptr, align 8
  %5 = alloca ptr, align 8
  %6 = alloca ptr, align 8
  %7 = alloca i32, align 4
  %8 = alloca i32, align 4
  %9 = alloca i32, align 4
  %10 = alloca i32, align 4
  %11 = alloca %class.Address, align 8
  %12 = alloca %class.Register, align 4
  %13 = alloca %class.Register, align 4
  %14 = alloca %class.Address, align 8
  %15 = alloca %class.Register, align 4
  store ptr %0, ptr %4, align 8
  store ptr %1, ptr %5, align 8
  store ptr %2, ptr %6, align 8
  %16 = load ptr, ptr %4, align 8
  store i32 2, ptr %7, align 4
  store i32 2, ptr %8, align 4
  %17 = load i32, ptr %8, align 4
  %18 = call noundef ptr @_ZNK11zStorePNode10opnd_arrayEj(ptr noundef nonnull align 8 dereferenceable(104) %16, i32 noundef 1)
  %19 = load ptr, ptr %18, align 8
  %20 = getelementptr inbounds ptr, ptr %19, i64 1
  %21 = load ptr, ptr %20, align 8
  %22 = call noundef i32 %21(ptr noundef nonnull align 8 dereferenceable(8) %18)
  %23 = add i32 %17, %22
  store i32 %23, ptr %9, align 4
  %24 = load i32, ptr %9, align 4
  %25 = call noundef ptr @_ZNK11zStorePNode10opnd_arrayEj(ptr noundef nonnull align 8 dereferenceable(104) %16, i32 noundef 2)
  %26 = load ptr, ptr %25, align 8
  %27 = getelementptr inbounds ptr, ptr %26, i64 1
  %28 = load ptr, ptr %27, align 8
  %29 = call noundef i32 %28(ptr noundef nonnull align 8 dereferenceable(8) %25)
  %30 = add i32 %24, %29
  store i32 %30, ptr %10, align 4
  %31 = load ptr, ptr %5, align 8
  %32 = call noundef ptr @_ZNK11zStorePNode10opnd_arrayEj(ptr noundef nonnull align 8 dereferenceable(104) %16, i32 noundef 1)
  %33 = load ptr, ptr %6, align 8
  %34 = load i32, ptr %8, align 4
  %35 = load ptr, ptr %32, align 8
  %36 = getelementptr inbounds ptr, ptr %35, i64 13
  %37 = load ptr, ptr %36, align 8
  %38 = call noundef i32 %37(ptr noundef nonnull align 8 dereferenceable(8) %32, ptr noundef %33, ptr noundef %16, i32 noundef %34)
  %39 = call noundef ptr @_ZNK11zStorePNode10opnd_arrayEj(ptr noundef nonnull align 8 dereferenceable(104) %16, i32 noundef 1)
  %40 = load ptr, ptr %6, align 8
  %41 = load i32, ptr %8, align 4
  %42 = load ptr, ptr %39, align 8
  %43 = getelementptr inbounds ptr, ptr %42, i64 14
  %44 = load ptr, ptr %43, align 8
  %45 = call noundef i32 %44(ptr noundef nonnull align 8 dereferenceable(8) %39, ptr noundef %40, ptr noundef %16, i32 noundef %41)
  %46 = call noundef ptr @_ZNK11zStorePNode10opnd_arrayEj(ptr noundef nonnull align 8 dereferenceable(104) %16, i32 noundef 1)
  %47 = load ptr, ptr %46, align 8
  %48 = getelementptr inbounds ptr, ptr %47, i64 15
  %49 = load ptr, ptr %48, align 8
  %50 = call noundef i32 %49(ptr noundef nonnull align 8 dereferenceable(8) %46)
  %51 = call noundef ptr @_ZNK11zStorePNode10opnd_arrayEj(ptr noundef nonnull align 8 dereferenceable(104) %16, i32 noundef 1)
  %52 = load ptr, ptr %6, align 8
  %53 = load i32, ptr %8, align 4
  %54 = load ptr, ptr %51, align 8
  %55 = getelementptr inbounds ptr, ptr %54, i64 16
  %56 = load ptr, ptr %55, align 8
  %57 = call noundef i32 %56(ptr noundef nonnull align 8 dereferenceable(8) %51, ptr noundef %52, ptr noundef %16, i32 noundef %53)
  %58 = call noundef ptr @_ZNK11zStorePNode10opnd_arrayEj(ptr noundef nonnull align 8 dereferenceable(104) %16, i32 noundef 1)
  %59 = load ptr, ptr %58, align 8
  %60 = getelementptr inbounds ptr, ptr %59, i64 17
  %61 = load ptr, ptr %60, align 8
  %62 = call noundef i32 %61(ptr noundef nonnull align 8 dereferenceable(8) %58)
  call void @_ZN7Address8make_rawEiiiiN9relocInfo9relocTypeE(ptr dead_on_unwind writable sret(%class.Address) align 8 %11, i32 noundef %38, i32 noundef %45, i32 noundef %50, i32 noundef %57, i32 noundef %62)
  %63 = call noundef ptr @_ZNK11zStorePNode10opnd_arrayEj(ptr noundef nonnull align 8 dereferenceable(104) %16, i32 noundef 2)
  %64 = load ptr, ptr %6, align 8
  %65 = load i32, ptr %9, align 4
  %66 = call i32 @_ZNK8MachOper11as_RegisterEP13PhaseRegAllocPK4Nodei(ptr noundef nonnull align 8 dereferenceable(8) %63, ptr noundef %64, ptr noundef %16, i32 noundef %65)
  %67 = getelementptr inbounds %class.Register, ptr %12, i32 0, i32 0
  store i32 %66, ptr %67, align 4
  %68 = call noundef ptr @_ZNK11zStorePNode10opnd_arrayEj(ptr noundef nonnull align 8 dereferenceable(104) %16, i32 noundef 3)
  %69 = load ptr, ptr %6, align 8
  %70 = load i32, ptr %10, align 4
  %71 = call i32 @_ZNK8MachOper11as_RegisterEP13PhaseRegAllocPK4Nodei(ptr noundef nonnull align 8 dereferenceable(8) %68, ptr noundef %69, ptr noundef %16, i32 noundef %70)
  %72 = getelementptr inbounds %class.Register, ptr %13, i32 0, i32 0
  store i32 %71, ptr %72, align 4
  %73 = getelementptr inbounds %class.Register, ptr %12, i32 0, i32 0
  %74 = load i32, ptr %73, align 4
  %75 = getelementptr inbounds %class.Register, ptr %13, i32 0, i32 0
  %76 = load i32, ptr %75, align 4
  call void @_ZL15z_store_barrierP14MacroAssemblerPK8MachNode7Address8RegisterS5_b(ptr noundef %31, ptr noundef %16, ptr noundef %11, i32 %74, i32 %76, i1 noundef zeroext false)
  %77 = load ptr, ptr %5, align 8
  %78 = call noundef ptr @_ZNK11zStorePNode10opnd_arrayEj(ptr noundef nonnull align 8 dereferenceable(104) %16, i32 noundef 1)
  %79 = load ptr, ptr %6, align 8
  %80 = load i32, ptr %8, align 4
  %81 = load ptr, ptr %78, align 8
  %82 = getelementptr inbounds ptr, ptr %81, i64 13
  %83 = load ptr, ptr %82, align 8
  %84 = call noundef i32 %83(ptr noundef nonnull align 8 dereferenceable(8) %78, ptr noundef %79, ptr noundef %16, i32 noundef %80)
  %85 = call noundef ptr @_ZNK11zStorePNode10opnd_arrayEj(ptr noundef nonnull align 8 dereferenceable(104) %16, i32 noundef 1)
  %86 = load ptr, ptr %6, align 8
  %87 = load i32, ptr %8, align 4
  %88 = load ptr, ptr %85, align 8
  %89 = getelementptr inbounds ptr, ptr %88, i64 14
  %90 = load ptr, ptr %89, align 8
  %91 = call noundef i32 %90(ptr noundef nonnull align 8 dereferenceable(8) %85, ptr noundef %86, ptr noundef %16, i32 noundef %87)
  %92 = call noundef ptr @_ZNK11zStorePNode10opnd_arrayEj(ptr noundef nonnull align 8 dereferenceable(104) %16, i32 noundef 1)
  %93 = load ptr, ptr %92, align 8
  %94 = getelementptr inbounds ptr, ptr %93, i64 15
  %95 = load ptr, ptr %94, align 8
  %96 = call noundef i32 %95(ptr noundef nonnull align 8 dereferenceable(8) %92)
  %97 = call noundef ptr @_ZNK11zStorePNode10opnd_arrayEj(ptr noundef nonnull align 8 dereferenceable(104) %16, i32 noundef 1)
  %98 = load ptr, ptr %6, align 8
  %99 = load i32, ptr %8, align 4
  %100 = load ptr, ptr %97, align 8
  %101 = getelementptr inbounds ptr, ptr %100, i64 16
  %102 = load ptr, ptr %101, align 8
  %103 = call noundef i32 %102(ptr noundef nonnull align 8 dereferenceable(8) %97, ptr noundef %98, ptr noundef %16, i32 noundef %99)
  %104 = call noundef ptr @_ZNK11zStorePNode10opnd_arrayEj(ptr noundef nonnull align 8 dereferenceable(104) %16, i32 noundef 1)
  %105 = load ptr, ptr %104, align 8
  %106 = getelementptr inbounds ptr, ptr %105, i64 17
  %107 = load ptr, ptr %106, align 8
  %108 = call noundef i32 %107(ptr noundef nonnull align 8 dereferenceable(8) %104)
  call void @_ZN7Address8make_rawEiiiiN9relocInfo9relocTypeE(ptr dead_on_unwind writable sret(%class.Address) align 8 %14, i32 noundef %84, i32 noundef %91, i32 noundef %96, i32 noundef %103, i32 noundef %108)
  %109 = call noundef ptr @_ZNK11zStorePNode10opnd_arrayEj(ptr noundef nonnull align 8 dereferenceable(104) %16, i32 noundef 3)
  %110 = load ptr, ptr %6, align 8
  %111 = load i32, ptr %10, align 4
  %112 = call i32 @_ZNK8MachOper11as_RegisterEP13PhaseRegAllocPK4Nodei(ptr noundef nonnull align 8 dereferenceable(8) %109, ptr noundef %110, ptr noundef %16, i32 noundef %111)
  %113 = getelementptr inbounds %class.Register, ptr %15, i32 0, i32 0
  store i32 %112, ptr %113, align 4
  %114 = getelementptr inbounds %class.Register, ptr %15, i32 0, i32 0
  %115 = load i32, ptr %114, align 4
  call void @_ZN9Assembler4movqE7Address8Register(ptr noundef nonnull align 8 dereferenceable(40) %77, ptr noundef %14, i32 %115)
  ret void
}