; Function Attrs: mustprogress nounwind uwtable
define hidden void @_ZNK11zStorePNode4emitEP17C2_MacroAssemblerP13PhaseRegAlloc(ptr noundef nonnull align 8 dereferenceable(104) %0, ptr noundef %1, ptr noundef %2) unnamed_addr #3 align 2 {
  %4 = alloca %class.Address, align 8
  %5 = alloca %class.Address, align 8
  %6 = getelementptr inbounds i8, ptr %0, i64 80
  %7 = load ptr, ptr %6, align 8
  %8 = load ptr, ptr %7, align 8
  %9 = getelementptr inbounds i8, ptr %8, i64 8
  %10 = load ptr, ptr %9, align 8
  %11 = tail call noundef i32 %10(ptr noundef nonnull align 8 dereferenceable(8) %7) #23
  %12 = add i32 %11, 2
  %13 = getelementptr inbounds i8, ptr %0, i64 88
  %14 = load ptr, ptr %13, align 8
  %15 = load ptr, ptr %14, align 8
  %16 = getelementptr inbounds i8, ptr %15, i64 8
  %17 = load ptr, ptr %16, align 8
  %18 = tail call noundef i32 %17(ptr noundef nonnull align 8 dereferenceable(8) %14) #23
  %19 = add i32 %18, %12
  %20 = load ptr, ptr %6, align 8
  %21 = load ptr, ptr %20, align 8
  %22 = getelementptr inbounds i8, ptr %21, i64 104
  %23 = load ptr, ptr %22, align 8
  %24 = tail call noundef i32 %23(ptr noundef nonnull align 8 dereferenceable(8) %20, ptr noundef %2, ptr noundef nonnull %0, i32 noundef 2) #23
  %25 = load ptr, ptr %6, align 8
  %26 = load ptr, ptr %25, align 8
  %27 = getelementptr inbounds i8, ptr %26, i64 112
  %28 = load ptr, ptr %27, align 8
  %29 = tail call noundef i32 %28(ptr noundef nonnull align 8 dereferenceable(8) %25, ptr noundef %2, ptr noundef nonnull %0, i32 noundef 2) #23
  %30 = load ptr, ptr %6, align 8
  %31 = load ptr, ptr %30, align 8
  %32 = getelementptr inbounds i8, ptr %31, i64 120
  %33 = load ptr, ptr %32, align 8
  %34 = tail call noundef i32 %33(ptr noundef nonnull align 8 dereferenceable(8) %30) #23
  %35 = load ptr, ptr %6, align 8
  %36 = load ptr, ptr %35, align 8
  %37 = getelementptr inbounds i8, ptr %36, i64 128
  %38 = load ptr, ptr %37, align 8
  %39 = tail call noundef i32 %38(ptr noundef nonnull align 8 dereferenceable(8) %35, ptr noundef %2, ptr noundef nonnull %0, i32 noundef 2) #23
  %40 = load ptr, ptr %6, align 8
  %41 = load ptr, ptr %40, align 8
  %42 = getelementptr inbounds i8, ptr %41, i64 136
  %43 = load ptr, ptr %42, align 8
  %44 = tail call noundef i32 %43(ptr noundef nonnull align 8 dereferenceable(8) %40) #23
  call void @_ZN7Address8make_rawEiiiiN9relocInfo9relocTypeE(ptr dead_on_unwind nonnull writable sret(%class.Address) align 8 %4, i32 noundef %24, i32 noundef %29, i32 noundef %34, i32 noundef %39, i32 noundef %44) #23
  %45 = load ptr, ptr %13, align 8
  %46 = load ptr, ptr %45, align 8
  %47 = getelementptr inbounds i8, ptr %46, i64 40
  %48 = load ptr, ptr %47, align 8
  %49 = call noundef i32 %48(ptr noundef nonnull align 8 dereferenceable(8) %45, ptr noundef %2, ptr noundef nonnull %0, i32 noundef %12) #23
  %or.cond.i.i = icmp ult i32 %49, 32
  %spec.select.i.i = select i1 %or.cond.i.i, i32 %49, i32 -1
  %50 = getelementptr inbounds i8, ptr %0, i64 96
  %51 = load ptr, ptr %50, align 8
  %52 = load ptr, ptr %51, align 8
  %53 = getelementptr inbounds i8, ptr %52, i64 40
  %54 = load ptr, ptr %53, align 8
  %55 = call noundef i32 %54(ptr noundef nonnull align 8 dereferenceable(8) %51, ptr noundef %2, ptr noundef nonnull %0, i32 noundef %19) #23
  %or.cond.i.i24 = icmp ult i32 %55, 32
  %spec.select.i.i25 = select i1 %or.cond.i.i24, i32 %55, i32 -1
  call fastcc void @_ZL15z_store_barrierP14MacroAssemblerPK8MachNode7Address8RegisterS5_b(ptr noundef %1, ptr noundef nonnull %0, ptr noundef nonnull %4, i32 %spec.select.i.i, i32 %spec.select.i.i25, i1 noundef zeroext false)
  %56 = load ptr, ptr %6, align 8
  %57 = load ptr, ptr %56, align 8
  %58 = getelementptr inbounds i8, ptr %57, i64 104
  %59 = load ptr, ptr %58, align 8
  %60 = call noundef i32 %59(ptr noundef nonnull align 8 dereferenceable(8) %56, ptr noundef %2, ptr noundef nonnull %0, i32 noundef 2) #23
  %61 = load ptr, ptr %6, align 8
  %62 = load ptr, ptr %61, align 8
  %63 = getelementptr inbounds i8, ptr %62, i64 112
  %64 = load ptr, ptr %63, align 8
  %65 = call noundef i32 %64(ptr noundef nonnull align 8 dereferenceable(8) %61, ptr noundef %2, ptr noundef nonnull %0, i32 noundef 2) #23
  %66 = load ptr, ptr %6, align 8
  %67 = load ptr, ptr %66, align 8
  %68 = getelementptr inbounds i8, ptr %67, i64 120
  %69 = load ptr, ptr %68, align 8
  %70 = call noundef i32 %69(ptr noundef nonnull align 8 dereferenceable(8) %66) #23
  %71 = load ptr, ptr %6, align 8
  %72 = load ptr, ptr %71, align 8
  %73 = getelementptr inbounds i8, ptr %72, i64 128
  %74 = load ptr, ptr %73, align 8
  %75 = call noundef i32 %74(ptr noundef nonnull align 8 dereferenceable(8) %71, ptr noundef %2, ptr noundef nonnull %0, i32 noundef 2) #23
  %76 = load ptr, ptr %6, align 8
  %77 = load ptr, ptr %76, align 8
  %78 = getelementptr inbounds i8, ptr %77, i64 136
  %79 = load ptr, ptr %78, align 8
  %80 = call noundef i32 %79(ptr noundef nonnull align 8 dereferenceable(8) %76) #23
  call void @_ZN7Address8make_rawEiiiiN9relocInfo9relocTypeE(ptr dead_on_unwind nonnull writable sret(%class.Address) align 8 %5, i32 noundef %60, i32 noundef %65, i32 noundef %70, i32 noundef %75, i32 noundef %80) #23
  %81 = load ptr, ptr %50, align 8
  %82 = load ptr, ptr %81, align 8
  %83 = getelementptr inbounds i8, ptr %82, i64 40
  %84 = load ptr, ptr %83, align 8
  %85 = call noundef i32 %84(ptr noundef nonnull align 8 dereferenceable(8) %81, ptr noundef %2, ptr noundef nonnull %0, i32 noundef %19) #23
  %or.cond.i.i26 = icmp ult i32 %85, 32
  %spec.select.i.i27 = select i1 %or.cond.i.i26, i32 %85, i32 -1
  call void @_ZN9Assembler4movqE7Address8Register(ptr noundef nonnull align 8 dereferenceable(40) %1, ptr noundef nonnull %5, i32 %spec.select.i.i27) #23
  ret void
}